target datalayout = "e-m:e-p270:32:32-p271:32:32-p272:64:64-i64:64-i128:128-f80:128-n8:16:32:64-S128"
target triple = "x86_64-pc-linux-gnu"

%struct._value_string = type { i32, ptr }
%struct.mcpe_handler_entry = type { %struct._value_string, ptr }

@.str.3 = private unnamed_addr constant [15 x i8] c"mcpe.packet.id\00", align 1
@proto_mcpe = internal global i32 0, align 4
@mcpe_handle = internal global ptr null, align 8
@mcpe_udp_port_requested = internal global i32 19132, align 4
@proto_reg_handoff_mcpe.last_server_port = internal global i32 0, align 4
@proto_reg_handoff_mcpe.init_done = internal global i8 0, align 1
@.str.49 = private unnamed_addr constant [7 x i8] c"raknet\00", align 1
@.str.50 = private unnamed_addr constant [17 x i8] c"MCPE over RakNet\00", align 1
@.str.51 = private unnamed_addr constant [12 x i8] c"mcpe_raknet\00", align 1

; Function Attrs: null_pointer_is_valid sspstrong uwtable
define hidden void @proto_reg_handoff_mcpe() #0 {
  %1 = alloca i32, align 4
  %2 = load i8, ptr @proto_reg_handoff_mcpe.init_done, align 1, !range !8, !noundef !9
  %3 = trunc i8 %2 to i1
  br i1 %3, label %4, label %7

4:                                                ; preds = %0
  %5 = load i32, ptr @proto_reg_handoff_mcpe.last_server_port, align 4
  %6 = load ptr, ptr @mcpe_handle, align 8
  call void @raknet_delete_udp_dissector(i32 noundef %5, ptr noundef %6)
  br label %31

7:                                                ; preds = %0
  call void @llvm.lifetime.start.p0(i64 4, ptr %1) #7
  store i32 0, ptr %1, align 4
  br label %8

8:                                                ; preds = %26, %7
  %9 = load i32, ptr %1, align 4
  %10 = zext i32 %9 to i64
  %11 = icmp ult i64 %10, 3
  br i1 %11, label %12, label %29

12:                                               ; preds = %8
  %13 = load i32, ptr %1, align 4
  %14 = zext i32 %13 to i64
  %15 = getelementptr [3 x %struct.mcpe_handler_entry], ptr @mcpe_packet_handlers, i64 0, i64 %14
  %16 = getelementptr inbounds nuw %struct.mcpe_handler_entry, ptr %15, i32 0, i32 0
  %17 = getelementptr inbounds nuw %struct._value_string, ptr %16, i32 0, i32 0
  %18 = load i32, ptr %17, align 8
  %19 = load i32, ptr %1, align 4
  %20 = zext i32 %19 to i64
  %21 = getelementptr [3 x %struct.mcpe_handler_entry], ptr @mcpe_packet_handlers, i64 0, i64 %20
  %22 = getelementptr inbounds nuw %struct.mcpe_handler_entry, ptr %21, i32 0, i32 1
  %23 = load ptr, ptr %22, align 8
  %24 = load i32, ptr @proto_mcpe, align 4
  %25 = call ptr @create_dissector_handle(ptr noundef %23, i32 noundef %24)
  call void @dissector_add_uint(ptr noundef @.str.3, i32 noundef %18, ptr noundef %25)
  br label %26

26:                                               ; preds = %12
  %27 = load i32, ptr %1, align 4
  %28 = add i32 %27, 1
  store i32 %28, ptr %1, align 4
  br label %8, !llvm.loop !10

29:                                               ; preds = %8
  %30 = load i32, ptr @proto_mcpe, align 4
  call void @heur_dissector_add(ptr noundef @.str.49, ptr noundef @dissect_mcpe_heur, ptr noundef @.str.50, ptr noundef @.str.51, i32 noundef %30, i32 noundef 1)
  call void @llvm.lifetime.end.p0(i64 4, ptr %1) #7
  br label %31

31:                                               ; preds = %29, %4
  %32 = load i32, ptr @mcpe_udp_port_requested, align 4
  store i32 %32, ptr @proto_reg_handoff_mcpe.last_server_port, align 4
  store i8 1, ptr @proto_reg_handoff_mcpe.init_done, align 1
  %33 = load i32, ptr @mcpe_udp_port_requested, align 4
  %34 = load ptr, ptr @mcpe_handle, align 8
  call void @raknet_add_udp_dissector(i32 noundef %33, ptr noundef %34)
  ret void
}