; Function Attrs: null_pointer_is_valid sspstrong uwtable
define hidden void @proto_reg_handoff_mcpe() #0 {
  %.b5 = load i1, ptr @proto_reg_handoff_mcpe.init_done, align 1
  br i1 %.b5, label %1, label %.preheader

1:                                                ; preds = %0
  %2 = load i32, ptr @proto_reg_handoff_mcpe.last_server_port, align 4
  %3 = load ptr, ptr @mcpe_handle, align 8
  tail call void @raknet_delete_udp_dissector(i32 noundef %2, ptr noundef %3)
  br label %12

.preheader:                                       ; preds = %0, %.preheader
  %indvars.iv = phi i64 [ %indvars.iv.next, %.preheader ], [ 0, %0 ]
  %4 = getelementptr [3 x %struct.mcpe_handler_entry], ptr @mcpe_packet_handlers, i64 0, i64 %indvars.iv
  %5 = load i32, ptr %4, align 8
  %6 = getelementptr inbounds nuw i8, ptr %4, i64 16
  %7 = load ptr, ptr %6, align 8
  %8 = load i32, ptr @proto_mcpe, align 4
  %9 = tail call ptr @create_dissector_handle(ptr noundef %7, i32 noundef %8)
  tail call void @dissector_add_uint(ptr noundef nonnull @.str.3, i32 noundef %5, ptr noundef %9)
  %indvars.iv.next = add nuw nsw i64 %indvars.iv, 1
  %exitcond.not = icmp eq i64 %indvars.iv.next, 3
  br i1 %exitcond.not, label %10, label %.preheader, !llvm.loop !10

10:                                               ; preds = %.preheader
  %11 = load i32, ptr @proto_mcpe, align 4
  tail call void @heur_dissector_add(ptr noundef nonnull @.str.49, ptr noundef nonnull @dissect_mcpe_heur, ptr noundef nonnull @.str.50, ptr noundef nonnull @.str.51, i32 noundef %11, i32 noundef 1)
  br label %12

12:                                               ; preds = %10, %1
  %13 = load i32, ptr @mcpe_udp_port_requested, align 4
  store i32 %13, ptr @proto_reg_handoff_mcpe.last_server_port, align 4
  store i1 true, ptr @proto_reg_handoff_mcpe.init_done, align 1
  %14 = load ptr, ptr @mcpe_handle, align 8
  tail call void @raknet_add_udp_dissector(i32 noundef %13, ptr noundef %14)
  ret void
}